target datalayout = "e-m:e-p270:32:32-p271:32:32-p272:64:64-i64:64-i128:128-f80:128-n8:16:32:64-S128"
target triple = "x86_64-pc-linux-gnu"

%struct.pem_password_cb_data = type { ptr, i32 }

@.str = private unnamed_addr constant [31 x i8] c"../openssl/crypto/ui/ui_util.c\00", align 1
@.str.1 = private unnamed_addr constant [30 x i8] c"PEM password callback wrapper\00", align 1
@get_index_once = internal global i32 0, align 4
@ui_method_data_index_init_ossl_ret_ = internal global i32 0, align 4
@ui_method_data_index = internal global i32 -1, align 4

; Function Attrs: nounwind uwtable
define ptr @UI_UTIL_wrap_read_pem_callback(ptr noundef %0, i32 noundef %1) #0 {
  %3 = alloca ptr, align 8
  %4 = alloca ptr, align 8
  %5 = alloca i32, align 4
  %6 = alloca ptr, align 8
  %7 = alloca ptr, align 8
  %8 = alloca i32, align 4
  store ptr %0, ptr %4, align 8, !tbaa !12
  store i32 %1, ptr %5, align 4, !tbaa !8
  call void @llvm.lifetime.start.p0(i64 8, ptr %6) #3
  store ptr null, ptr %6, align 8, !tbaa !13
  call void @llvm.lifetime.start.p0(i64 8, ptr %7) #3
  store ptr null, ptr %7, align 8, !tbaa !15
  %9 = call noalias ptr @CRYPTO_zalloc(i64 noundef 16, ptr noundef @.str, i32 noundef 151)
  store ptr %9, ptr %6, align 8, !tbaa !13
  %10 = icmp eq ptr %9, null
  br i1 %10, label %43, label %11

11:                                               ; preds = %2
  %12 = call ptr @UI_create_method(ptr noundef @.str.1)
  store ptr %12, ptr %7, align 8, !tbaa !15
  %13 = icmp eq ptr %12, null
  br i1 %13, label %43, label %14

14:                                               ; preds = %11
  %15 = load ptr, ptr %7, align 8, !tbaa !15
  %16 = call i32 @UI_method_set_opener(ptr noundef %15, ptr noundef @ui_open)
  %17 = icmp slt i32 %16, 0
  br i1 %17, label %43, label %18

18:                                               ; preds = %14
  %19 = load ptr, ptr %7, align 8, !tbaa !15
  %20 = call i32 @UI_method_set_reader(ptr noundef %19, ptr noundef @ui_read)
  %21 = icmp slt i32 %20, 0
  br i1 %21, label %43, label %22

22:                                               ; preds = %18
  %23 = load ptr, ptr %7, align 8, !tbaa !15
  %24 = call i32 @UI_method_set_writer(ptr noundef %23, ptr noundef @ui_write)
  %25 = icmp slt i32 %24, 0
  br i1 %25, label %43, label %26

26:                                               ; preds = %22
  %27 = load ptr, ptr %7, align 8, !tbaa !15
  %28 = call i32 @UI_method_set_closer(ptr noundef %27, ptr noundef @ui_close)
  %29 = icmp slt i32 %28, 0
  br i1 %29, label %43, label %30

30:                                               ; preds = %26
  %31 = call i32 @CRYPTO_THREAD_run_once(ptr noundef @get_index_once, ptr noundef @ui_method_data_index_init_ossl_)
  %32 = icmp ne i32 %31, 0
  br i1 %32, label %33, label %36

33:                                               ; preds = %30
  %34 = load i32, ptr @ui_method_data_index_init_ossl_ret_, align 4, !tbaa !8
  %35 = icmp ne i32 %34, 0
  br i1 %35, label %37, label %43

36:                                               ; preds = %30
  br i1 false, label %37, label %43

37:                                               ; preds = %36, %33
  %38 = load ptr, ptr %7, align 8, !tbaa !15
  %39 = load i32, ptr @ui_method_data_index, align 4, !tbaa !8
  %40 = load ptr, ptr %6, align 8, !tbaa !13
  %41 = call i32 @UI_method_set_ex_data(ptr noundef %38, i32 noundef %39, ptr noundef %40)
  %42 = icmp ne i32 %41, 0
  br i1 %42, label %46, label %43

43:                                               ; preds = %37, %36, %33, %26, %22, %18, %14, %11, %2
  %44 = load ptr, ptr %7, align 8, !tbaa !15
  call void @UI_destroy_method(ptr noundef %44)
  %45 = load ptr, ptr %6, align 8, !tbaa !13
  call void @CRYPTO_free(ptr noundef %45, ptr noundef @.str, i32 noundef 160)
  store ptr null, ptr %3, align 8
  store i32 1, ptr %8, align 4
  br label %60

46:                                               ; preds = %37
  %47 = load i32, ptr %5, align 4, !tbaa !8
  %48 = load ptr, ptr %6, align 8, !tbaa !13
  %49 = getelementptr inbounds nuw %struct.pem_password_cb_data, ptr %48, i32 0, i32 1
  store i32 %47, ptr %49, align 8, !tbaa !17
  %50 = load ptr, ptr %4, align 8, !tbaa !12
  %51 = icmp ne ptr %50, null
  br i1 %51, label %52, label %54

52:                                               ; preds = %46
  %53 = load ptr, ptr %4, align 8, !tbaa !12
  br label %55

54:                                               ; preds = %46
  br label %55

55:                                               ; preds = %54, %52
  %56 = phi ptr [ %53, %52 ], [ @PEM_def_callback, %54 ]
  %57 = load ptr, ptr %6, align 8, !tbaa !13
  %58 = getelementptr inbounds nuw %struct.pem_password_cb_data, ptr %57, i32 0, i32 0
  store ptr %56, ptr %58, align 8, !tbaa !19
  %59 = load ptr, ptr %7, align 8, !tbaa !15
  store ptr %59, ptr %3, align 8
  store i32 1, ptr %8, align 4
  br label %60

60:                                               ; preds = %55, %43
  call void @llvm.lifetime.end.p0(i64 8, ptr %7) #3
  call void @llvm.lifetime.end.p0(i64 8, ptr %6) #3
  %61 = load ptr, ptr %3, align 8
  ret ptr %61
}