; Function Attrs: nounwind uwtable
define ptr @UI_UTIL_wrap_read_pem_callback(ptr noundef %0, i32 noundef %1) local_unnamed_addr #0 {
  %3 = tail call noalias ptr @CRYPTO_zalloc(i64 noundef 16, ptr noundef nonnull @.str, i32 noundef 151) #5
  %4 = icmp eq ptr %3, null
  br i1 %4, label %26, label %5

5:                                                ; preds = %2
  %6 = tail call ptr @UI_create_method(ptr noundef nonnull @.str.1) #5
  %7 = icmp eq ptr %6, null
  br i1 %7, label %26, label %8

8:                                                ; preds = %5
  %9 = tail call i32 @UI_method_set_opener(ptr noundef nonnull %6, ptr noundef nonnull @ui_open) #5
  %10 = icmp slt i32 %9, 0
  br i1 %10, label %26, label %11

11:                                               ; preds = %8
  %12 = tail call i32 @UI_method_set_reader(ptr noundef nonnull %6, ptr noundef nonnull @ui_read) #5
  %13 = icmp slt i32 %12, 0
  br i1 %13, label %26, label %14

14:                                               ; preds = %11
  %15 = tail call i32 @UI_method_set_writer(ptr noundef nonnull %6, ptr noundef nonnull @ui_write) #5
  %16 = icmp slt i32 %15, 0
  br i1 %16, label %26, label %17

17:                                               ; preds = %14
  %18 = tail call i32 @UI_method_set_closer(ptr noundef nonnull %6, ptr noundef nonnull @ui_close) #5
  %19 = icmp slt i32 %18, 0
  br i1 %19, label %26, label %20

20:                                               ; preds = %17
  %21 = tail call i32 @CRYPTO_THREAD_run_once(ptr noundef nonnull @get_index_once, ptr noundef nonnull @ui_method_data_index_init_ossl_) #5
  %22 = icmp ne i32 %21, 0
  %.b = load i1, ptr @ui_method_data_index_init_ossl_ret_, align 4
  %or.cond = select i1 %22, i1 %.b, i1 false
  br i1 %or.cond, label %23, label %26

23:                                               ; preds = %20
  %24 = load i32, ptr @ui_method_data_index, align 4, !tbaa !3
  %25 = tail call i32 @UI_method_set_ex_data(ptr noundef nonnull %6, i32 noundef %24, ptr noundef nonnull %3) #5
  %.not = icmp eq i32 %25, 0
  br i1 %.not, label %26, label %27

26:                                               ; preds = %20, %23, %17, %14, %11, %8, %5, %2
  %.0 = phi ptr [ null, %2 ], [ null, %5 ], [ %6, %8 ], [ %6, %11 ], [ %6, %14 ], [ %6, %17 ], [ %6, %23 ], [ %6, %20 ]
  tail call void @UI_destroy_method(ptr noundef %.0) #5
  tail call void @CRYPTO_free(ptr noundef %3, ptr noundef nonnull @.str, i32 noundef 160) #5
  br label %30

27:                                               ; preds = %23
  %28 = getelementptr inbounds nuw i8, ptr %3, i64 8
  store i32 %1, ptr %28, align 8, !tbaa !7
  %.not18 = icmp eq ptr %0, null
  %29 = select i1 %.not18, ptr @PEM_def_callback, ptr %0
  store ptr %29, ptr %3, align 8, !tbaa !10
  br label %30

30:                                               ; preds = %27, %26
  %.015 = phi ptr [ null, %26 ], [ %6, %27 ]
  ret ptr %.015
}